target datalayout = "e-m:e-p270:32:32-p271:32:32-p272:64:64-i64:64-i128:128-f80:128-n8:16:32:64-S128"
target triple = "x86_64-pc-linux-gnu"

%struct.expert_field = type { i32, i32 }
%struct.nstime_t = type { i64, i32 }
%struct.tm = type { i32, i32, i32, i32, i32, i32, i32, i32, i32, i64, ptr }

@ei_gsm_sms_short_data = internal global %struct.expert_field zeroinitializer, align 4
@hf_gsm_sms_scts = internal global i32 0, align 4
@hf_gsm_sms_scts_year = internal global i32 0, align 4
@hf_gsm_sms_scts_month = internal global i32 0, align 4
@hf_gsm_sms_scts_day = internal global i32 0, align 4
@hf_gsm_sms_scts_hour = internal global i32 0, align 4
@hf_gsm_sms_scts_minutes = internal global i32 0, align 4
@hf_gsm_sms_scts_seconds = internal global i32 0, align 4
@hf_gsm_sms_scts_timezone = internal global i32 0, align 4
@ett_scts = internal global i32 0, align 4
@.str.623 = private unnamed_addr constant [45 x i8] c"TP-Service-Centre-Time-Stamp: Short Data (?)\00", align 1
@.str.624 = private unnamed_addr constant [3 x i8] c"%s\00", align 1
@.str.625 = private unnamed_addr constant [27 x i8] c"GMT %c %d hours %d minutes\00", align 1

; Function Attrs: null_pointer_is_valid sspstrong uwtable
define internal i32 @dis_field_scts_aux(ptr noundef %0, ptr noundef %1, ptr noundef %2, i32 noundef %3) #0 {
  %5 = alloca ptr, align 8
  %6 = alloca ptr, align 8
  %7 = alloca ptr, align 8
  %8 = alloca i32, align 4
  %9 = alloca ptr, align 8
  %10 = alloca ptr, align 8
  %11 = alloca i16, align 2
  %12 = alloca i16, align 2
  %13 = alloca %struct.nstime_t, align 8
  %14 = alloca %struct.tm, align 8
  %15 = alloca i8, align 1
  %16 = alloca ptr, align 8
  %17 = alloca i8, align 1
  store ptr %0, ptr %5, align 8
  store ptr %1, ptr %6, align 8
  store ptr %2, ptr %7, align 8
  store i32 %3, ptr %8, align 4
  call void @llvm.lifetime.start.p0(i64 8, ptr %9) #13
  call void @llvm.lifetime.start.p0(i64 8, ptr %10) #13
  call void @llvm.lifetime.start.p0(i64 2, ptr %11) #13
  call void @llvm.lifetime.start.p0(i64 2, ptr %12) #13
  call void @llvm.lifetime.start.p0(i64 16, ptr %13) #13
  call void @llvm.lifetime.start.p0(i64 56, ptr %14) #13
  call void @llvm.lifetime.start.p0(i64 1, ptr %15) #13
  call void @llvm.lifetime.start.p0(i64 8, ptr %16) #13
  %18 = load ptr, ptr %5, align 8
  %19 = load ptr, ptr %6, align 8
  %20 = load i32, ptr %8, align 4
  %21 = call ptr @tp_scts_values(ptr noundef %18, ptr noundef %19, i32 noundef %20, ptr noundef %14, ptr noundef %13, ptr noundef %15, ptr noundef %11, ptr noundef %12)
  store ptr %21, ptr %16, align 8
  %22 = load ptr, ptr %7, align 8
  %23 = load i32, ptr @hf_gsm_sms_scts, align 4
  %24 = load ptr, ptr %5, align 8
  %25 = load i32, ptr %8, align 4
  %26 = load ptr, ptr %16, align 8
  %27 = call ptr (ptr, i32, ptr, i32, i32, ptr, ptr, ...) @proto_tree_add_time_format_value(ptr noundef %22, i32 noundef %23, ptr noundef %24, i32 noundef %25, i32 noundef 7, ptr noundef %13, ptr noundef @.str.624, ptr noundef %26)
  store ptr %27, ptr %9, align 8
  %28 = load ptr, ptr %9, align 8
  %29 = load i32, ptr @ett_scts, align 4
  %30 = call ptr @proto_item_add_subtree(ptr noundef %28, i32 noundef %29)
  store ptr %30, ptr %10, align 8
  %31 = load ptr, ptr %10, align 8
  %32 = load i32, ptr @hf_gsm_sms_scts_year, align 4
  %33 = load ptr, ptr %5, align 8
  %34 = load i32, ptr %8, align 4
  %35 = add i32 %34, 1
  store i32 %35, ptr %8, align 4
  %36 = getelementptr inbounds nuw %struct.tm, ptr %14, i32 0, i32 5
  %37 = load i32, ptr %36, align 4
  %38 = sub i32 %37, 100
  %39 = call ptr @proto_tree_add_uint(ptr noundef %31, i32 noundef %32, ptr noundef %33, i32 noundef %34, i32 noundef 1, i32 noundef %38)
  %40 = load ptr, ptr %10, align 8
  %41 = load i32, ptr @hf_gsm_sms_scts_month, align 4
  %42 = load ptr, ptr %5, align 8
  %43 = load i32, ptr %8, align 4
  %44 = add i32 %43, 1
  store i32 %44, ptr %8, align 4
  %45 = getelementptr inbounds nuw %struct.tm, ptr %14, i32 0, i32 4
  %46 = load i32, ptr %45, align 8
  %47 = add i32 %46, 1
  %48 = call ptr @proto_tree_add_uint(ptr noundef %40, i32 noundef %41, ptr noundef %42, i32 noundef %43, i32 noundef 1, i32 noundef %47)
  %49 = load ptr, ptr %10, align 8
  %50 = load i32, ptr @hf_gsm_sms_scts_day, align 4
  %51 = load ptr, ptr %5, align 8
  %52 = load i32, ptr %8, align 4
  %53 = add i32 %52, 1
  store i32 %53, ptr %8, align 4
  %54 = getelementptr inbounds nuw %struct.tm, ptr %14, i32 0, i32 3
  %55 = load i32, ptr %54, align 4
  %56 = call ptr @proto_tree_add_uint(ptr noundef %49, i32 noundef %50, ptr noundef %51, i32 noundef %52, i32 noundef 1, i32 noundef %55)
  %57 = load ptr, ptr %10, align 8
  %58 = load i32, ptr @hf_gsm_sms_scts_hour, align 4
  %59 = load ptr, ptr %5, align 8
  %60 = load i32, ptr %8, align 4
  %61 = add i32 %60, 1
  store i32 %61, ptr %8, align 4
  %62 = getelementptr inbounds nuw %struct.tm, ptr %14, i32 0, i32 2
  %63 = load i32, ptr %62, align 8
  %64 = call ptr @proto_tree_add_uint(ptr noundef %57, i32 noundef %58, ptr noundef %59, i32 noundef %60, i32 noundef 1, i32 noundef %63)
  %65 = load ptr, ptr %10, align 8
  %66 = load i32, ptr @hf_gsm_sms_scts_minutes, align 4
  %67 = load ptr, ptr %5, align 8
  %68 = load i32, ptr %8, align 4
  %69 = add i32 %68, 1
  store i32 %69, ptr %8, align 4
  %70 = getelementptr inbounds nuw %struct.tm, ptr %14, i32 0, i32 1
  %71 = load i32, ptr %70, align 4
  %72 = call ptr @proto_tree_add_uint(ptr noundef %65, i32 noundef %66, ptr noundef %67, i32 noundef %68, i32 noundef 1, i32 noundef %71)
  %73 = load ptr, ptr %10, align 8
  %74 = load i32, ptr @hf_gsm_sms_scts_seconds, align 4
  %75 = load ptr, ptr %5, align 8
  %76 = load i32, ptr %8, align 4
  %77 = add i32 %76, 1
  store i32 %77, ptr %8, align 4
  %78 = getelementptr inbounds nuw %struct.tm, ptr %14, i32 0, i32 0
  %79 = load i32, ptr %78, align 8
  %80 = call ptr @proto_tree_add_uint(ptr noundef %73, i32 noundef %74, ptr noundef %75, i32 noundef %76, i32 noundef 1, i32 noundef %79)
  call void @llvm.lifetime.start.p0(i64 1, ptr %17) #13
  %81 = load ptr, ptr %5, align 8
  %82 = load i32, ptr %8, align 4
  %83 = call zeroext i8 @tvb_get_uint8(ptr noundef %81, i32 noundef %82)
  store i8 %83, ptr %17, align 1
  %84 = load ptr, ptr %10, align 8
  %85 = load i32, ptr @hf_gsm_sms_scts_timezone, align 4
  %86 = load ptr, ptr %5, align 8
  %87 = load i32, ptr %8, align 4
  %88 = add i32 %87, 1
  store i32 %88, ptr %8, align 4
  %89 = load i8, ptr %17, align 1
  %90 = zext i8 %89 to i32
  %91 = load i8, ptr %15, align 1
  %92 = sext i8 %91 to i32
  %93 = load i16, ptr %11, align 2
  %94 = zext i16 %93 to i32
  %95 = load i16, ptr %12, align 2
  %96 = zext i16 %95 to i32
  %97 = call ptr (ptr, i32, ptr, i32, i32, i32, ptr, ...) @proto_tree_add_uint_format_value(ptr noundef %84, i32 noundef %85, ptr noundef %86, i32 noundef %87, i32 noundef 1, i32 noundef %90, ptr noundef @.str.625, i32 noundef %92, i32 noundef %94, i32 noundef %96)
  %98 = load i32, ptr %8, align 4
  call void @llvm.lifetime.end.p0(i64 1, ptr %17) #13
  call void @llvm.lifetime.end.p0(i64 8, ptr %16) #13
  call void @llvm.lifetime.end.p0(i64 1, ptr %15) #13
  call void @llvm.lifetime.end.p0(i64 56, ptr %14) #13
  call void @llvm.lifetime.end.p0(i64 16, ptr %13) #13
  call void @llvm.lifetime.end.p0(i64 2, ptr %12) #13
  call void @llvm.lifetime.end.p0(i64 2, ptr %11) #13
  call void @llvm.lifetime.end.p0(i64 8, ptr %10) #13
  call void @llvm.lifetime.end.p0(i64 8, ptr %9) #13
  ret i32 %98
}

; Function Attrs: null_pointer_is_valid sspstrong uwtable
define internal void @dis_field_scts(ptr noundef %0, ptr noundef %1, ptr noundef %2, ptr noundef %3) #0 {
  %5 = alloca ptr, align 8
  %6 = alloca ptr, align 8
  %7 = alloca ptr, align 8
  %8 = alloca ptr, align 8
  %9 = alloca i32, align 4
  %10 = alloca i32, align 4
  %11 = alloca i32, align 4
  store ptr %0, ptr %5, align 8
  store ptr %1, ptr %6, align 8
  store ptr %2, ptr %7, align 8
  store ptr %3, ptr %8, align 8
  call void @llvm.lifetime.start.p0(i64 4, ptr %9) #13
  call void @llvm.lifetime.start.p0(i64 4, ptr %10) #13
  %12 = load ptr, ptr %8, align 8
  %13 = load i32, ptr %12, align 4
  store i32 %13, ptr %9, align 4
  %14 = load ptr, ptr %5, align 8
  %15 = load i32, ptr %9, align 4
  %16 = call i32 @tvb_reported_length_remaining(ptr noundef %14, i32 noundef %15)
  store i32 %16, ptr %10, align 4
  %17 = load i32, ptr %10, align 4
  %18 = icmp ult i32 %17, 7
  br i1 %18, label %19, label %30

19:                                               ; preds = %4
  %20 = load ptr, ptr %7, align 8
  %21 = load ptr, ptr %6, align 8
  %22 = load ptr, ptr %5, align 8
  %23 = load i32, ptr %9, align 4
  %24 = load i32, ptr %10, align 4
  %25 = call ptr (ptr, ptr, ptr, ptr, i32, i32, ptr, ...) @proto_tree_add_expert_format(ptr noundef %20, ptr noundef %21, ptr noundef @ei_gsm_sms_short_data, ptr noundef %22, i32 noundef %23, i32 noundef %24, ptr noundef @.str.623)
  %26 = load i32, ptr %10, align 4
  %27 = load ptr, ptr %8, align 8
  %28 = load i32, ptr %27, align 4
  %29 = add i32 %28, %26
  store i32 %29, ptr %27, align 4
  store i32 1, ptr %11, align 4
  br label %38

30:                                               ; preds = %4
  %31 = load ptr, ptr %5, align 8
  %32 = load ptr, ptr %6, align 8
  %33 = load ptr, ptr %7, align 8
  %34 = load ptr, ptr %8, align 8
  %35 = load i32, ptr %34, align 4
  %36 = call i32 @dis_field_scts_aux(ptr noundef %31, ptr noundef %32, ptr noundef %33, i32 noundef %35)
  %37 = load ptr, ptr %8, align 8
  store i32 %36, ptr %37, align 4
  store i32 0, ptr %11, align 4
  br label %38

38:                                               ; preds = %30, %19
  call void @llvm.lifetime.end.p0(i64 4, ptr %10) #13
  call void @llvm.lifetime.end.p0(i64 4, ptr %9) #13
  %39 = load i32, ptr %11, align 4
  switch i32 %39, label %41 [
    i32 0, label %40
    i32 1, label %40
  ]

40:                                               ; preds = %38, %38
  ret void

41:                                               ; preds = %38
  unreachable
}