; Function Attrs: null_pointer_is_valid sspstrong uwtable
define internal fastcc void @dis_field_scts(ptr noundef %0, ptr noundef %1, ptr noundef %2, ptr noundef captures(none) %3) unnamed_addr #0 {
  %5 = alloca i16, align 2
  %6 = alloca i16, align 2
  %7 = alloca %struct.nstime_t, align 8
  %8 = alloca %struct.tm, align 8
  %9 = alloca i8, align 1
  %10 = load i32, ptr %3, align 4
  %11 = tail call i32 @tvb_reported_length_remaining(ptr noundef %0, i32 noundef %10)
  %12 = icmp ult i32 %11, 7
  br i1 %12, label %13, label %17

13:                                               ; preds = %4
  %14 = tail call ptr (ptr, ptr, ptr, ptr, i32, i32, ptr, ...) @proto_tree_add_expert_format(ptr noundef %2, ptr noundef %1, ptr noundef nonnull @ei_gsm_sms_short_data, ptr noundef %0, i32 noundef %10, i32 noundef %11, ptr noundef nonnull @.str.623)
  %15 = load i32, ptr %3, align 4
  %16 = add i32 %15, %11
  br label %66

17:                                               ; preds = %4
  %18 = load i32, ptr %3, align 4
  call void @llvm.lifetime.start.p0(i64 2, ptr nonnull %5) #10
  call void @llvm.lifetime.start.p0(i64 2, ptr nonnull %6) #10
  call void @llvm.lifetime.start.p0(i64 16, ptr nonnull %7) #10
  call void @llvm.lifetime.start.p0(i64 56, ptr nonnull %8) #10
  call void @llvm.lifetime.start.p0(i64 1, ptr nonnull %9) #10
  %19 = call fastcc ptr @tp_scts_values(ptr noundef %0, ptr noundef readonly %1, i32 noundef %18, ptr noundef nonnull %8, ptr noundef nonnull %7, ptr noundef nonnull %9, ptr noundef nonnull %5, ptr noundef nonnull %6)
  %20 = load i32, ptr @hf_gsm_sms_scts, align 4
  %21 = call ptr (ptr, i32, ptr, i32, i32, ptr, ptr, ...) @proto_tree_add_time_format_value(ptr noundef %2, i32 noundef %20, ptr noundef %0, i32 noundef %18, i32 noundef 7, ptr noundef nonnull %7, ptr noundef nonnull @.str.624, ptr noundef %19)
  %22 = load i32, ptr @ett_scts, align 4
  %23 = call ptr @proto_item_add_subtree(ptr noundef %21, i32 noundef %22)
  %24 = load i32, ptr @hf_gsm_sms_scts_year, align 4
  %25 = add i32 %18, 1
  %26 = getelementptr inbounds nuw i8, ptr %8, i64 20
  %27 = load i32, ptr %26, align 4
  %28 = add i32 %27, -100
  %29 = call ptr @proto_tree_add_uint(ptr noundef %23, i32 noundef %24, ptr noundef %0, i32 noundef %18, i32 noundef 1, i32 noundef %28)
  %30 = load i32, ptr @hf_gsm_sms_scts_month, align 4
  %31 = add i32 %18, 2
  %32 = getelementptr inbounds nuw i8, ptr %8, i64 16
  %33 = load i32, ptr %32, align 8
  %34 = add i32 %33, 1
  %35 = call ptr @proto_tree_add_uint(ptr noundef %23, i32 noundef %30, ptr noundef %0, i32 noundef %25, i32 noundef 1, i32 noundef %34)
  %36 = load i32, ptr @hf_gsm_sms_scts_day, align 4
  %37 = add i32 %18, 3
  %38 = getelementptr inbounds nuw i8, ptr %8, i64 12
  %39 = load i32, ptr %38, align 4
  %40 = call ptr @proto_tree_add_uint(ptr noundef %23, i32 noundef %36, ptr noundef %0, i32 noundef %31, i32 noundef 1, i32 noundef %39)
  %41 = load i32, ptr @hf_gsm_sms_scts_hour, align 4
  %42 = add i32 %18, 4
  %43 = getelementptr inbounds nuw i8, ptr %8, i64 8
  %44 = load i32, ptr %43, align 8
  %45 = call ptr @proto_tree_add_uint(ptr noundef %23, i32 noundef %41, ptr noundef %0, i32 noundef %37, i32 noundef 1, i32 noundef %44)
  %46 = load i32, ptr @hf_gsm_sms_scts_minutes, align 4
  %47 = add i32 %18, 5
  %48 = getelementptr inbounds nuw i8, ptr %8, i64 4
  %49 = load i32, ptr %48, align 4
  %50 = call ptr @proto_tree_add_uint(ptr noundef %23, i32 noundef %46, ptr noundef %0, i32 noundef %42, i32 noundef 1, i32 noundef %49)
  %51 = load i32, ptr @hf_gsm_sms_scts_seconds, align 4
  %52 = add i32 %18, 6
  %53 = load i32, ptr %8, align 8
  %54 = call ptr @proto_tree_add_uint(ptr noundef %23, i32 noundef %51, ptr noundef %0, i32 noundef %47, i32 noundef 1, i32 noundef %53)
  %55 = call zeroext i8 @tvb_get_uint8(ptr noundef %0, i32 noundef %52)
  %56 = load i32, ptr @hf_gsm_sms_scts_timezone, align 4
  %57 = add i32 %18, 7
  %58 = zext i8 %55 to i32
  %59 = load i8, ptr %9, align 1
  %60 = sext i8 %59 to i32
  %61 = load i16, ptr %5, align 2
  %62 = zext i16 %61 to i32
  %63 = load i16, ptr %6, align 2
  %64 = zext i16 %63 to i32
  %65 = call ptr (ptr, i32, ptr, i32, i32, i32, ptr, ...) @proto_tree_add_uint_format_value(ptr noundef %23, i32 noundef %56, ptr noundef %0, i32 noundef %52, i32 noundef 1, i32 noundef %58, ptr noundef nonnull @.str.625, i32 noundef %60, i32 noundef %62, i32 noundef %64)
  call void @llvm.lifetime.end.p0(i64 1, ptr nonnull %9) #10
  call void @llvm.lifetime.end.p0(i64 56, ptr nonnull %8) #10
  call void @llvm.lifetime.end.p0(i64 16, ptr nonnull %7) #10
  call void @llvm.lifetime.end.p0(i64 2, ptr nonnull %6) #10
  call void @llvm.lifetime.end.p0(i64 2, ptr nonnull %5) #10
  br label %66

66:                                               ; preds = %17, %13
  %storemerge = phi i32 [ %57, %17 ], [ %16, %13 ]
  store i32 %storemerge, ptr %3, align 4
  ret void
}